target datalayout = "e-m:e-p270:32:32-p271:32:32-p272:64:64-i64:64-i128:128-f80:128-n8:16:32:64-S128"
target triple = "x86_64-pc-linux-gnu"

%"class.cv::saliency::ObjectnessBING::FilterTIG" = type { [2 x i64], [2 x float], [2 x float], [2 x float], [2 x float] }
%"class.cv::Mat" = type { i32, i32, i32, i32, ptr, ptr, ptr, ptr, ptr, ptr, %"struct.cv::MatSize", %"struct.cv::MatStep" }
%"struct.cv::MatSize" = type { ptr }
%"struct.cv::MatStep" = type { ptr, [2 x i64] }
%"class.cv::MatExpr" = type { ptr, i32, %"class.cv::Mat", %"class.cv::Mat", %"class.cv::Mat", double, double, %"class.cv::Scalar_" }
%"class.cv::Scalar_" = type { %"class.cv::Vec" }
%"class.cv::Vec" = type { %"class.cv::Matx" }
%"class.cv::Matx" = type { [4 x double] }

; Function Attrs: mustprogress uwtable
define linkonce_odr hidden noundef nonnull align 8 dereferenceable(96) ptr @_ZN2cv3MataSERKNS_7MatExprE(ptr noundef nonnull align 8 dereferenceable(96) %0, ptr noundef nonnull align 8 dereferenceable(352) %1) #4 comdat align 2 {
  %3 = alloca ptr, align 8
  %4 = alloca ptr, align 8
  store ptr %0, ptr %3, align 8
  store ptr %1, ptr %4, align 8
  %5 = load ptr, ptr %3, align 8
  %6 = load ptr, ptr %4, align 8
  %7 = getelementptr inbounds %"class.cv::MatExpr", ptr %6, i32 0, i32 0
  %8 = load ptr, ptr %7, align 8
  %9 = load ptr, ptr %4, align 8
  %10 = load ptr, ptr %8, align 8
  %11 = getelementptr inbounds ptr, ptr %10, i64 3
  %12 = load ptr, ptr %11, align 8
  call void %12(ptr noundef nonnull align 8 dereferenceable(8) %8, ptr noundef nonnull align 8 dereferenceable(352) %9, ptr noundef nonnull align 8 dereferenceable(96) %5, i32 noundef -1)
  ret ptr %5
}

; Function Attrs: mustprogress uwtable
define void @_ZN2cv8saliency14ObjectnessBING9FilterTIG11reconstructERNS_3MatE(ptr noundef nonnull align 8 dereferenceable(48) %0, ptr noundef nonnull align 8 dereferenceable(96) %1) #4 align 2 personality ptr @__gxx_personality_v0 {
  %3 = alloca ptr, align 8
  %4 = alloca ptr, align 8
  %5 = alloca %"class.cv::MatExpr", align 8
  %6 = alloca ptr, align 8
  %7 = alloca i32, align 4
  %8 = alloca ptr, align 8
  %9 = alloca i32, align 4
  %10 = alloca i64, align 8
  %11 = alloca i32, align 4
  store ptr %0, ptr %3, align 8
  store ptr %1, ptr %4, align 8
  %12 = load ptr, ptr %3, align 8
  call void @_ZN2cv3Mat5zerosEiii(ptr dead_on_unwind writable sret(%"class.cv::MatExpr") align 8 %5, i32 noundef 8, i32 noundef 8, i32 noundef 5)
  %13 = load ptr, ptr %4, align 8
  %14 = invoke noundef nonnull align 8 dereferenceable(96) ptr @_ZN2cv3MataSERKNS_7MatExprE(ptr noundef nonnull align 8 dereferenceable(96) %13, ptr noundef nonnull align 8 dereferenceable(352) %5)
          to label %15 unwind label %55

15:                                               ; preds = %2
  call void @_ZN2cv7MatExprD2Ev(ptr noundef nonnull align 8 dereferenceable(352) %5) #3
  %16 = load ptr, ptr %4, align 8
  %17 = getelementptr inbounds %"class.cv::Mat", ptr %16, i32 0, i32 4
  %18 = load ptr, ptr %17, align 8
  store ptr %18, ptr %8, align 8
  store i32 0, ptr %9, align 4
  br label %19

19:                                               ; preds = %60, %15
  %20 = load i32, ptr %9, align 4
  %21 = icmp slt i32 %20, 2
  br i1 %21, label %22, label %63

22:                                               ; preds = %19
  %23 = getelementptr inbounds %"class.cv::saliency::ObjectnessBING::FilterTIG", ptr %12, i32 0, i32 0
  %24 = load i32, ptr %9, align 4
  %25 = sext i32 %24 to i64
  %26 = getelementptr inbounds [2 x i64], ptr %23, i64 0, i64 %25
  %27 = load i64, ptr %26, align 8
  store i64 %27, ptr %10, align 8
  store i32 0, ptr %11, align 4
  br label %28

28:                                               ; preds = %52, %22
  %29 = load i32, ptr %11, align 4
  %30 = icmp slt i32 %29, 64
  br i1 %30, label %31, label %59

31:                                               ; preds = %28
  %32 = getelementptr inbounds %"class.cv::saliency::ObjectnessBING::FilterTIG", ptr %12, i32 0, i32 1
  %33 = load i32, ptr %9, align 4
  %34 = sext i32 %33 to i64
  %35 = getelementptr inbounds [2 x float], ptr %32, i64 0, i64 %34
  %36 = load float, ptr %35, align 4
  %37 = load i64, ptr %10, align 8
  %38 = load i32, ptr %11, align 4
  %39 = sub nsw i32 63, %38
  %40 = zext i32 %39 to i64
  %41 = lshr i64 %37, %40
  %42 = and i64 %41, 1
  %43 = icmp ne i64 %42, 0
  %44 = select i1 %43, i32 1, i32 -1
  %45 = sitofp i32 %44 to float
  %46 = load ptr, ptr %8, align 8
  %47 = load i32, ptr %11, align 4
  %48 = sext i32 %47 to i64
  %49 = getelementptr inbounds float, ptr %46, i64 %48
  %50 = load float, ptr %49, align 4
  %51 = call float @llvm.fmuladd.f32(float %36, float %45, float %50)
  store float %51, ptr %49, align 4
  br label %52

52:                                               ; preds = %31
  %53 = load i32, ptr %11, align 4
  %54 = add nsw i32 %53, 1
  store i32 %54, ptr %11, align 4
  br label %28, !llvm.loop !9

55:                                               ; preds = %2
  %56 = landingpad { ptr, i32 }
          cleanup
  %57 = extractvalue { ptr, i32 } %56, 0
  store ptr %57, ptr %6, align 8
  %58 = extractvalue { ptr, i32 } %56, 1
  store i32 %58, ptr %7, align 4
  call void @_ZN2cv7MatExprD2Ev(ptr noundef nonnull align 8 dereferenceable(352) %5) #3
  br label %64

59:                                               ; preds = %28
  br label %60

60:                                               ; preds = %59
  %61 = load i32, ptr %9, align 4
  %62 = add nsw i32 %61, 1
  store i32 %62, ptr %9, align 4
  br label %19, !llvm.loop !10

63:                                               ; preds = %19
  ret void

64:                                               ; preds = %55
  %65 = load ptr, ptr %6, align 8
  %66 = load i32, ptr %7, align 4
  %67 = insertvalue { ptr, i32 } poison, ptr %65, 0
  %68 = insertvalue { ptr, i32 } %67, i32 %66, 1
  resume { ptr, i32 } %68
}